; ModuleID = 'bench/rocksdb/original/dbt.ll'
source_filename = "bench/rocksdb/original/dbt.ll"
target datalayout = "e-m:e-p270:32:32-p271:32:32-p272:64:64-i64:64-i128:128-f80:128-n8:16:32:64-S128"
target triple = "x86_64-pc-linux-gnu"

%struct.__toku_dbt = type { ptr, i64, i64, i32 }

@_ZZ26toku_dbt_positive_infinityvE21positive_infinity_dbt = internal global %struct.__toku_dbt zeroinitializer, align 8
@_ZZ26toku_dbt_negative_infinityvE21negative_infinity_dbt = internal global %struct.__toku_dbt zeroinitializer, align 8

; Function Attrs: mustprogress nofree norecurse nosync nounwind willreturn memory(argmem: write) uwtable
define noundef ptr @_Z13toku_init_dbtP10__toku_dbt(ptr noundef returned writeonly initializes((0, 32)) %0) local_unnamed_addr #0 {
  tail call void @llvm.memset.p0.i64(ptr noundef nonnull align 8 dereferenceable(32) %0, i8 0, i64 32, i1 false)
  ret ptr %0
}

; Function Attrs: mustprogress nocallback nofree nounwind willreturn memory(argmem: write)
declare void @llvm.memset.p0.i64(ptr writeonly captures(none), i8, i64, i1 immarg) #1

; Function Attrs: mustprogress nofree norecurse nosync nounwind willreturn memory(argmem: write) uwtable
define void @_Z14toku_empty_dbtv(ptr dead_on_unwind noalias writable writeonly sret(%struct.__toku_dbt) align 8 captures(none) initializes((0, 32)) %0) local_unnamed_addr #0 {
  tail call void @llvm.memset.p0.i64(ptr noundef nonnull align 8 dereferenceable(32) %0, i8 0, i64 32, i1 false)
  ret void
}

; Function Attrs: mustprogress nofree norecurse nosync nounwind willreturn memory(argmem: write) uwtable
define noundef ptr @_Z19toku_init_dbt_flagsP10__toku_dbtj(ptr noundef returned writeonly initializes((0, 32)) %0, i32 noundef %1) local_unnamed_addr #0 {
  tail call void @llvm.memset.p0.i64(ptr noundef nonnull align 8 dereferenceable(32) %0, i8 0, i64 32, i1 false)
  %3 = getelementptr inbounds nuw i8, ptr %0, i64 24
  store i32 %1, ptr %3, align 8, !tbaa !4
  ret ptr %0
}

; Function Attrs: mustprogress uwtable
define void @_Z16toku_destroy_dbtP10__toku_dbt(ptr noundef captures(none) %0) local_unnamed_addr #2 {
  %2 = getelementptr inbounds nuw i8, ptr %0, i64 24
  %3 = load i32, ptr %2, align 8, !tbaa !4
  switch i32 %3, label %6 [
    i32 8, label %4
    i32 64, label %4
  ]

4:                                                ; preds = %1, %1
  %5 = load ptr, ptr %0, align 8, !tbaa !11
  tail call void @_Z9toku_freePv(ptr noundef %5)
  tail call void @llvm.memset.p0.i64(ptr noundef nonnull align 8 dereferenceable(32) %0, i8 0, i64 32, i1 false)
  br label %6

6:                                                ; preds = %4, %1
  ret void
}

declare void @_Z9toku_freePv(ptr noundef) local_unnamed_addr #3

; Function Attrs: mustprogress nofree norecurse nosync nounwind willreturn memory(argmem: write) uwtable
define noundef ptr @_Z13toku_fill_dbtP10__toku_dbtPKvm(ptr noundef returned writeonly initializes((0, 32)) %0, ptr noundef %1, i64 noundef %2) local_unnamed_addr #0 {
  %4 = getelementptr inbounds nuw i8, ptr %0, i64 16
  tail call void @llvm.memset.p0.i64(ptr noundef nonnull align 8 dereferenceable(16) %4, i8 0, i64 16, i1 false)
  %5 = getelementptr inbounds nuw i8, ptr %0, i64 8
  store i64 %2, ptr %5, align 8, !tbaa !12
  store ptr %1, ptr %0, align 8, !tbaa !11
  ret ptr %0
}

; Function Attrs: mustprogress uwtable
define noundef ptr @_Z15toku_memdup_dbtP10__toku_dbtPKvm(ptr noundef returned writeonly initializes((0, 32)) %0, ptr noundef %1, i64 noundef %2) local_unnamed_addr #2 {
  tail call void @llvm.memset.p0.i64(ptr noundef nonnull align 8 dereferenceable(32) %0, i8 0, i64 32, i1 false)
  %4 = getelementptr inbounds nuw i8, ptr %0, i64 24
  store i32 8, ptr %4, align 8, !tbaa !4
  %5 = getelementptr inbounds nuw i8, ptr %0, i64 8
  store i64 %2, ptr %5, align 8, !tbaa !12
  %6 = tail call noundef ptr @_Z12toku_xmemdupPKvm(ptr noundef %1, i64 noundef %2)
  store ptr %6, ptr %0, align 8, !tbaa !11
  ret ptr %0
}

declare noundef ptr @_Z12toku_xmemdupPKvm(ptr noundef, i64 noundef) local_unnamed_addr #3

; Function Attrs: mustprogress nofree norecurse nosync nounwind willreturn memory(argmem: readwrite) uwtable
define noundef ptr @_Z16toku_copyref_dbtP10__toku_dbtS_(ptr noundef returned writeonly initializes((0, 28)) %0, ptr noundef readonly byval(%struct.__toku_dbt) align 8 captures(none) %1) local_unnamed_addr #4 {
  %3 = getelementptr inbounds nuw i8, ptr %0, i64 24
  store i32 0, ptr %3, align 8, !tbaa !4
  %4 = getelementptr inbounds nuw i8, ptr %0, i64 16
  store i64 0, ptr %4, align 8, !tbaa !13
  %5 = getelementptr inbounds nuw i8, ptr %1, i64 8
  %6 = load i64, ptr %5, align 8, !tbaa !12
  %7 = getelementptr inbounds nuw i8, ptr %0, i64 8
  store i64 %6, ptr %7, align 8, !tbaa !12
  %8 = load ptr, ptr %1, align 8, !tbaa !11
  store ptr %8, ptr %0, align 8, !tbaa !11
  ret ptr %0
}

; Function Attrs: mustprogress uwtable
define noundef ptr @_Z14toku_clone_dbtP10__toku_dbtRKS_(ptr noundef returned writeonly initializes((0, 32)) %0, ptr noundef nonnull readonly align 8 captures(none) dereferenceable(32) %1) local_unnamed_addr #2 {
  %3 = load ptr, ptr %1, align 8, !tbaa !11
  %4 = getelementptr inbounds nuw i8, ptr %1, i64 8
  %5 = load i64, ptr %4, align 8, !tbaa !12
  tail call void @llvm.memset.p0.i64(ptr noundef nonnull align 8 dereferenceable(32) %0, i8 0, i64 32, i1 false)
  %6 = getelementptr inbounds nuw i8, ptr %0, i64 24
  store i32 8, ptr %6, align 8, !tbaa !4
  %7 = getelementptr inbounds nuw i8, ptr %0, i64 8
  store i64 %5, ptr %7, align 8, !tbaa !12
  %8 = tail call noundef ptr @_Z12toku_xmemdupPKvm(ptr noundef %3, i64 noundef %5)
  store ptr %8, ptr %0, align 8, !tbaa !11
  ret ptr %0
}

; Function Attrs: mustprogress uwtable
define void @_Z17toku_sdbt_cleanupP10simple_dbt(ptr noundef captures(none) initializes((0, 8)) %0) local_unnamed_addr #2 {
  %2 = getelementptr inbounds nuw i8, ptr %0, i64 8
  %3 = load ptr, ptr %2, align 8, !tbaa !14
  %.not = icmp eq ptr %3, null
  br i1 %.not, label %5, label %4

4:                                                ; preds = %1
  tail call void @_Z9toku_freePv(ptr noundef nonnull %3)
  br label %5

5:                                                ; preds = %4, %1
  tail call void @llvm.memset.p0.i64(ptr noundef nonnull align 8 dereferenceable(16) %0, i8 0, i64 16, i1 false)
  ret void
}

; Function Attrs: mustprogress nofree norecurse nosync nounwind willreturn memory(none) uwtable
define noundef nonnull ptr @_Z26toku_dbt_positive_infinityv() local_unnamed_addr #5 {
  ret ptr @_ZZ26toku_dbt_positive_infinityvE21positive_infinity_dbt
}

; Function Attrs: mustprogress nofree norecurse nosync nounwind willreturn memory(none) uwtable
define noundef nonnull ptr @_Z26toku_dbt_negative_infinityv() local_unnamed_addr #5 {
  ret ptr @_ZZ26toku_dbt_negative_infinityvE21negative_infinity_dbt
}

; Function Attrs: mustprogress nofree norecurse nosync nounwind willreturn memory(none) uwtable
define noundef zeroext i1 @_Z20toku_dbt_is_infinitePK10__toku_dbt(ptr noundef readnone %0) local_unnamed_addr #5 {
  %2 = icmp eq ptr %0, @_ZZ26toku_dbt_positive_infinityvE21positive_infinity_dbt
  %3 = icmp eq ptr %0, @_ZZ26toku_dbt_negative_infinityvE21negative_infinity_dbt
  %spec.select = or i1 %2, %3
  ret i1 %spec.select
}

; Function Attrs: mustprogress nofree norecurse nosync nounwind willreturn memory(argmem: read) uwtable
define noundef zeroext i1 @_Z17toku_dbt_is_emptyPK10__toku_dbt(ptr noundef readonly captures(none) %0) local_unnamed_addr #6 {
  %2 = load ptr, ptr %0, align 8, !tbaa !11
  %3 = icmp eq ptr %2, null
  ret i1 %3
}

; Function Attrs: mustprogress nofree norecurse nosync nounwind willreturn memory(none) uwtable
define noundef range(i32 -1, 2) i32 @_Z25toku_dbt_infinite_comparePK10__toku_dbtS1_(ptr noundef readnone %0, ptr noundef readnone %1) local_unnamed_addr #5 {
  %3 = icmp eq ptr %0, %1
  br i1 %3, label %9, label %4

4:                                                ; preds = %2
  %5 = icmp eq ptr %0, @_ZZ26toku_dbt_positive_infinityvE21positive_infinity_dbt
  br i1 %5, label %9, label %6

6:                                                ; preds = %4
  %7 = icmp eq ptr %1, @_ZZ26toku_dbt_positive_infinityvE21positive_infinity_dbt
  %8 = icmp eq ptr %0, @_ZZ26toku_dbt_negative_infinityvE21negative_infinity_dbt
  %or.cond = or i1 %8, %7
  %spec.select = select i1 %or.cond, i32 -1, i32 1
  br label %9

9:                                                ; preds = %6, %4, %2
  %.0 = phi i32 [ 0, %2 ], [ 1, %4 ], [ %spec.select, %6 ]
  ret i32 %.0
}

; Function Attrs: mustprogress nofree norecurse nosync nounwind willreturn memory(argmem: read) uwtable
define noundef zeroext i1 @_Z15toku_dbt_equalsPK10__toku_dbtS1_(ptr noundef readonly %0, ptr noundef readonly %1) local_unnamed_addr #6 {
  %3 = icmp eq ptr %0, @_ZZ26toku_dbt_positive_infinityvE21positive_infinity_dbt
  %4 = icmp eq ptr %0, @_ZZ26toku_dbt_negative_infinityvE21negative_infinity_dbt
  %spec.select.i = or i1 %3, %4
  br i1 %spec.select.i, label %18, label %5

5:                                                ; preds = %2
  %6 = icmp eq ptr %1, @_ZZ26toku_dbt_positive_infinityvE21positive_infinity_dbt
  %7 = icmp eq ptr %1, @_ZZ26toku_dbt_negative_infinityvE21negative_infinity_dbt
  %spec.select.i9 = or i1 %6, %7
  br i1 %spec.select.i9, label %18, label %8

8:                                                ; preds = %5
  %9 = load ptr, ptr %0, align 8, !tbaa !11
  %10 = load ptr, ptr %1, align 8, !tbaa !11
  %11 = icmp eq ptr %9, %10
  br i1 %11, label %12, label %20

12:                                               ; preds = %8
  %13 = getelementptr inbounds nuw i8, ptr %0, i64 8
  %14 = load i64, ptr %13, align 8, !tbaa !12
  %15 = getelementptr inbounds nuw i8, ptr %1, i64 8
  %16 = load i64, ptr %15, align 8, !tbaa !12
  %17 = icmp eq i64 %14, %16
  br label %20

18:                                               ; preds = %5, %2
  %19 = icmp eq ptr %0, %1
  br label %20

20:                                               ; preds = %8, %12, %18
  %.0 = phi i1 [ %19, %18 ], [ false, %8 ], [ %17, %12 ]
  ret i1 %.0
}


!llvm.module.flags = !{!0, !1, !2, !3}

!0 = !{i32 1, !"wchar_size", i32 4}
!1 = !{i32 8, !"PIC Level", i32 2}
!2 = !{i32 7, !"uwtable", i32 2}
!3 = !{i32 7, !"frame-pointer", i32 1}
!4 = !{!5, !10, i64 24}
!5 = !{!"_ZTS10__toku_dbt", !6, i64 0, !9, i64 8, !9, i64 16, !10, i64 24}
!6 = !{!"any pointer", !7, i64 0}
!7 = !{!"omnipotent char", !8, i64 0}
!8 = !{!"Simple C++ TBAA"}
!9 = !{!"long", !7, i64 0}
!10 = !{!"int", !7, i64 0}
!11 = !{!5, !6, i64 0}
!12 = !{!5, !9, i64 8}
!13 = !{!5, !9, i64 16}
!14 = !{!15, !6, i64 8}
!15 = !{!"_ZTS10simple_dbt", !10, i64 0, !6, i64 8}
